; Function Attrs: mustprogress uwtable
define void @_ZN7rocksdb16WritePreparedTxn3GetERKNS_11ReadOptionsEPNS_18ColumnFamilyHandleERKNS_5SliceEPNS_13PinnableSliceE(ptr dead_on_unwind noalias writable sret(%"class.rocksdb::Status") align 8 %0, ptr noundef nonnull align 8 dereferenceable(664) %1, ptr noundef nonnull align 8 dereferenceable(168) %2, ptr noundef %3, ptr noundef nonnull align 8 dereferenceable(16) %4, ptr noundef %5) unnamed_addr #4 align 2 personality ptr @__gxx_personality_v0 {
  %7 = alloca %"class.rocksdb::Slice", align 8
  %8 = alloca %"class.rocksdb::Slice", align 8
  %9 = alloca %"struct.rocksdb::ReadOptions", align 8
  %10 = getelementptr inbounds nuw i8, ptr %2, i64 155
  %11 = load i8, ptr %10, align 1, !tbaa !105
  switch i8 %11, label %12 [
    i8 11, label %15
    i8 3, label %15
  ]

12:                                               ; preds = %6
  call void @llvm.lifetime.start.p0(i64 16, ptr nonnull %7) #26
  store ptr @.str.41, ptr %7, align 8, !tbaa !115
  %13 = getelementptr inbounds nuw i8, ptr %7, i64 8
  store i64 107, ptr %13, align 8, !tbaa !117
  call void @llvm.lifetime.start.p0(i64 16, ptr nonnull %8) #26
  store ptr @.str, ptr %8, align 8, !tbaa !115
  %14 = getelementptr inbounds nuw i8, ptr %8, i64 8
  store i64 0, ptr %14, align 8, !tbaa !117
  call void @_ZN7rocksdb6StatusC2ENS0_4CodeENS0_7SubCodeERKNS_5SliceES5_NS0_8SeverityE(ptr noundef nonnull align 8 dereferenceable(16) %0, i8 noundef zeroext 4, i8 noundef zeroext 0, ptr noundef nonnull align 8 dereferenceable(16) %7, ptr noundef nonnull align 8 dereferenceable(16) %8, i8 noundef zeroext 0)
  call void @llvm.lifetime.end.p0(i64 16, ptr nonnull %8) #26
  call void @llvm.lifetime.end.p0(i64 16, ptr nonnull %7) #26
  br label %61

15:                                               ; preds = %6, %6
  call void @llvm.lifetime.start.p0(i64 168, ptr nonnull %9) #26
  call void @llvm.memcpy.p0.p0.i64(ptr noundef nonnull align 8 dereferenceable(168) %9, ptr noundef nonnull align 8 dereferenceable(168) %2, i64 120, i1 false)
  %16 = getelementptr inbounds nuw i8, ptr %9, i64 120
  %17 = getelementptr inbounds nuw i8, ptr %9, i64 136
  %18 = getelementptr inbounds nuw i8, ptr %9, i64 144
  %19 = getelementptr inbounds nuw i8, ptr %2, i64 136
  call void @llvm.memset.p0.i64(ptr noundef nonnull align 8 dereferenceable(32) %16, i8 0, i64 32, i1 false)
  %20 = load ptr, ptr %19, align 8, !tbaa !139
  %.not.i.i.not.i.i = icmp eq ptr %20, null
  br i1 %.not.i.i.not.i.i, label %_ZN7rocksdb11ReadOptionsC2ERKS0_.exit, label %21

21:                                               ; preds = %15
  %22 = getelementptr inbounds nuw i8, ptr %2, i64 120
  %23 = invoke noundef zeroext i1 %20(ptr noundef nonnull align 8 dereferenceable(32) %16, ptr noundef nonnull align 8 dereferenceable(32) %22, i32 noundef 2)
          to label %24 unwind label %28

24:                                               ; preds = %21
  %25 = getelementptr inbounds nuw i8, ptr %2, i64 144
  %26 = load ptr, ptr %25, align 8, !tbaa !140
  store ptr %26, ptr %18, align 8, !tbaa !140
  %27 = load ptr, ptr %19, align 8, !tbaa !139
  store ptr %27, ptr %17, align 8, !tbaa !139
  br label %_ZN7rocksdb11ReadOptionsC2ERKS0_.exit

28:                                               ; preds = %21
  %29 = landingpad { ptr, i32 }
          cleanup
  %30 = load ptr, ptr %17, align 8, !tbaa !139
  %.not.i.i.i = icmp eq ptr %30, null
  br i1 %.not.i.i.i, label %common.resume, label %31

31:                                               ; preds = %28
  %32 = invoke noundef zeroext i1 %30(ptr noundef nonnull align 8 dereferenceable(32) %16, ptr noundef nonnull align 8 dereferenceable(32) %16, i32 noundef 3)
          to label %common.resume unwind label %33

33:                                               ; preds = %31
  %34 = landingpad { ptr, i32 }
          catch ptr null
  %35 = extractvalue { ptr, i32 } %34, 0
  call void @__clang_call_terminate(ptr %35) #27
  unreachable

common.resume:                                    ; preds = %28, %31, %_ZN7rocksdb11ReadOptionsD2Ev.exit10
  %common.resume.op = phi { ptr, i32 } [ %54, %_ZN7rocksdb11ReadOptionsD2Ev.exit10 ], [ %29, %31 ], [ %29, %28 ]
  resume { ptr, i32 } %common.resume.op

_ZN7rocksdb11ReadOptionsC2ERKS0_.exit:            ; preds = %15, %24
  %36 = getelementptr inbounds nuw i8, ptr %9, i64 152
  %37 = getelementptr inbounds nuw i8, ptr %2, i64 152
  call void @llvm.memcpy.p0.p0.i64(ptr noundef nonnull align 8 dereferenceable(16) %36, ptr noundef nonnull align 8 dereferenceable(16) %37, i64 16, i1 false)
  %38 = getelementptr inbounds nuw i8, ptr %9, i64 155
  %39 = load i8, ptr %38, align 1, !tbaa !105
  %40 = icmp eq i8 %39, 11
  br i1 %40, label %41, label %42

41:                                               ; preds = %_ZN7rocksdb11ReadOptionsC2ERKS0_.exit
  store i8 3, ptr %38, align 1, !tbaa !105
  br label %42

42:                                               ; preds = %41, %_ZN7rocksdb11ReadOptionsC2ERKS0_.exit
  %43 = load ptr, ptr %1, align 8, !tbaa !18
  %44 = getelementptr inbounds nuw i8, ptr %43, i64 736
  %45 = load ptr, ptr %44, align 8
  invoke void %45(ptr dead_on_unwind writable sret(%"class.rocksdb::Status") align 8 %0, ptr noundef nonnull align 8 dereferenceable(664) %1, ptr noundef nonnull align 8 dereferenceable(168) %9, ptr noundef %3, ptr noundef nonnull align 8 dereferenceable(16) %4, ptr noundef %5)
          to label %46 unwind label %53

46:                                               ; preds = %42
  %47 = load ptr, ptr %17, align 8, !tbaa !139
  %.not.i.i = icmp eq ptr %47, null
  br i1 %.not.i.i, label %_ZN7rocksdb11ReadOptionsD2Ev.exit, label %48

48:                                               ; preds = %46
  %49 = invoke noundef zeroext i1 %47(ptr noundef nonnull align 8 dereferenceable(32) %16, ptr noundef nonnull align 8 dereferenceable(32) %16, i32 noundef 3)
          to label %_ZN7rocksdb11ReadOptionsD2Ev.exit unwind label %50

50:                                               ; preds = %48
  %51 = landingpad { ptr, i32 }
          catch ptr null
  %52 = extractvalue { ptr, i32 } %51, 0
  call void @__clang_call_terminate(ptr %52) #27
  unreachable

_ZN7rocksdb11ReadOptionsD2Ev.exit:                ; preds = %46, %48
  call void @llvm.lifetime.end.p0(i64 168, ptr nonnull %9) #26
  br label %61

53:                                               ; preds = %42
  %54 = landingpad { ptr, i32 }
          cleanup
  %55 = load ptr, ptr %17, align 8, !tbaa !139
  %.not.i.i9 = icmp eq ptr %55, null
  br i1 %.not.i.i9, label %_ZN7rocksdb11ReadOptionsD2Ev.exit10, label %56

56:                                               ; preds = %53
  %57 = invoke noundef zeroext i1 %55(ptr noundef nonnull align 8 dereferenceable(32) %16, ptr noundef nonnull align 8 dereferenceable(32) %16, i32 noundef 3)
          to label %_ZN7rocksdb11ReadOptionsD2Ev.exit10 unwind label %58

58:                                               ; preds = %56
  %59 = landingpad { ptr, i32 }
          catch ptr null
  %60 = extractvalue { ptr, i32 } %59, 0
  call void @__clang_call_terminate(ptr %60) #27
  unreachable

_ZN7rocksdb11ReadOptionsD2Ev.exit10:              ; preds = %53, %56
  call void @llvm.lifetime.end.p0(i64 168, ptr nonnull %9) #26
  br label %common.resume

61:                                               ; preds = %_ZN7rocksdb11ReadOptionsD2Ev.exit, %12
  ret void
}